target datalayout = "e-m:e-p270:32:32-p271:32:32-p272:64:64-i64:64-i128:128-f80:128-n8:16:32:64-S128"
target triple = "x86_64-unknown-linux-gnu"

%"class.std::locale" = type { ptr }
%"class.std::basic_streambuf" = type { ptr, ptr, ptr, ptr, ptr, ptr, ptr, %"class.std::locale" }
%struct.mock_streambuf = type { %"class.std::basic_streambuf", %"class.testing::internal::FunctionMocker" }
%"class.testing::internal::FunctionMocker" = type { %"class.testing::internal::UntypedFunctionMockerBase" }
%"class.testing::internal::UntypedFunctionMockerBase" = type { ptr, ptr, ptr, %"class.std::vector", %"class.std::vector.29" }
%"class.std::vector" = type { %"struct.std::_Vector_base" }
%"struct.std::_Vector_base" = type { %"struct.std::_Vector_base<const void *, std::allocator<const void *>>::_Vector_impl" }
%"struct.std::_Vector_base<const void *, std::allocator<const void *>>::_Vector_impl" = type { %"struct.std::_Vector_base<const void *, std::allocator<const void *>>::_Vector_impl_data" }
%"struct.std::_Vector_base<const void *, std::allocator<const void *>>::_Vector_impl_data" = type { ptr, ptr, ptr }
%"class.std::vector.29" = type { %"struct.std::_Vector_base.30" }
%"struct.std::_Vector_base.30" = type { %"struct.std::_Vector_base<std::shared_ptr<testing::internal::ExpectationBase>, std::allocator<std::shared_ptr<testing::internal::ExpectationBase>>>::_Vector_impl" }
%"struct.std::_Vector_base<std::shared_ptr<testing::internal::ExpectationBase>, std::allocator<std::shared_ptr<testing::internal::ExpectationBase>>>::_Vector_impl" = type { %"struct.std::_Vector_base<std::shared_ptr<testing::internal::ExpectationBase>, std::allocator<std::shared_ptr<testing::internal::ExpectationBase>>>::_Vector_impl_data" }
%"struct.std::_Vector_base<std::shared_ptr<testing::internal::ExpectationBase>, std::allocator<std::shared_ptr<testing::internal::ExpectationBase>>>::_Vector_impl_data" = type { ptr, ptr, ptr }

; Function Attrs: mustprogress nounwind uwtable
define internal void @_ZZN43ostream_test_write_to_ostream_max_size_Test8TestBodyEvEN14mock_streambufD2Ev(ptr noundef nonnull align 8 dereferenceable(136) %this) unnamed_addr #5 align 2 {
entry:
  %this.addr = alloca ptr, align 8
  store ptr %this, ptr %this.addr, align 8
  %this1 = load ptr, ptr %this.addr, align 8
  store ptr getelementptr inbounds ({ [16 x ptr] }, ptr @_ZTVZN43ostream_test_write_to_ostream_max_size_Test8TestBodyEvE14mock_streambuf, i32 0, i32 0, i32 2), ptr %this1, align 8
  %gmock02_xsputn_143 = getelementptr inbounds %struct.mock_streambuf, ptr %this1, i32 0, i32 1
  call void @_ZN7testing8internal14FunctionMockerIFlPKvlEED2Ev(ptr noundef nonnull align 8 dereferenceable(72) %gmock02_xsputn_143) #3
  call void @_ZNSt15basic_streambufIcSt11char_traitsIcEED2Ev(ptr noundef nonnull align 8 dereferenceable(64) %this1) #3
  ret void
}

; Function Attrs: mustprogress nounwind uwtable
define internal void @_ZZN43ostream_test_write_to_ostream_max_size_Test8TestBodyEvEN14mock_streambufD0Ev(ptr noundef nonnull align 8 dereferenceable(136) %this) unnamed_addr #5 align 2 {
entry:
  %this.addr = alloca ptr, align 8
  store ptr %this, ptr %this.addr, align 8
  %this1 = load ptr, ptr %this.addr, align 8
  call void @_ZZN43ostream_test_write_to_ostream_max_size_Test8TestBodyEvEN14mock_streambufD2Ev(ptr noundef nonnull align 8 dereferenceable(136) %this1) #3
  call void @_ZdlPv(ptr noundef %this1) #23
  ret void
}