; Function Attrs: mustprogress nounwind uwtable
define internal void @_ZZN43ostream_test_write_to_ostream_max_size_Test8TestBodyEvEN14mock_streambufD0Ev(ptr noundef nonnull align 8 dereferenceable(136) %this) unnamed_addr #7 align 2 {
entry:
  store ptr getelementptr inbounds ({ [16 x ptr] }, ptr @_ZTVZN43ostream_test_write_to_ostream_max_size_Test8TestBodyEvE14mock_streambuf, i64 0, i32 0, i64 2), ptr %this, align 8
  %gmock02_xsputn_143.i = getelementptr inbounds i8, ptr %this, i64 64
  tail call void @_ZN7testing8internal14FunctionMockerIFlPKvlEED2Ev(ptr noundef nonnull align 8 dereferenceable(72) %gmock02_xsputn_143.i) #25
  tail call void @_ZNSt15basic_streambufIcSt11char_traitsIcEED2Ev(ptr noundef nonnull align 8 dereferenceable(64) %this) #25
  tail call void @_ZdlPv(ptr noundef nonnull %this) #26
  ret void
}